; Function Attrs: mustprogress uwtable
define noundef double @_ZNK8QuantLib14ZeroCouponSwap13fairFixedRateERKNS_10DayCounterE(ptr noundef nonnull align 8 dereferenceable(312) %this, ptr noundef nonnull align 8 dereferenceable(16) %dayCounter) local_unnamed_addr #9 align 2 personality ptr @__gxx_personality_v0 {
entry:
  %ref.tmp = alloca %"class.QuantLib::InterestRate", align 8
  %ref.tmp2 = alloca %"class.QuantLib::Date", align 8
  %ref.tmp3 = alloca %"class.QuantLib::Date", align 8
  %call.i = tail call noundef zeroext i1 @_ZNK8QuantLib4Swap5payerEm(ptr noundef nonnull align 8 dereferenceable(256) %this, i64 noundef 1)
  %call.i.i = tail call noundef double @_ZNK8QuantLib4Swap6legNPVEm(ptr noundef nonnull align 8 dereferenceable(256) %this, i64 noundef 1)
  %call3.i = tail call noundef double @_ZNK8QuantLib4Swap12endDiscountsEm(ptr noundef nonnull align 8 dereferenceable(256) %this, i64 noundef 0)
  %0 = fneg double %call3.i
  %mul.i = select i1 %call.i, double %0, double %call3.i
  %div.i = fdiv double %call.i.i, %mul.i
  %baseNominal_ = getelementptr inbounds nuw i8, ptr %this, i64 264
  %1 = load double, ptr %baseNominal_, align 8, !tbaa !66
  %div = fdiv double %div.i, %1
  %add = fadd double %div, 1.000000e+00
  call void @llvm.lifetime.start.p0(i64 40, ptr nonnull %ref.tmp) #27
  %startDate_ = getelementptr inbounds nuw i8, ptr %this, i64 288
  %maturityDate_ = getelementptr inbounds nuw i8, ptr %this, i64 296
  call void @llvm.lifetime.start.p0(i64 8, ptr nonnull %ref.tmp2) #27
  call void @_ZN8QuantLib4DateC1Ev(ptr noundef nonnull align 8 dereferenceable(8) %ref.tmp2)
  call void @llvm.lifetime.start.p0(i64 8, ptr nonnull %ref.tmp3) #27
  call void @_ZN8QuantLib4DateC1Ev(ptr noundef nonnull align 8 dereferenceable(8) %ref.tmp3)
  call void @_ZN8QuantLib12InterestRate11impliedRateEdRKNS_10DayCounterENS_11CompoundingENS_9FrequencyERKNS_4DateES8_S8_S8_(ptr dead_on_unwind nonnull writable sret(%"class.QuantLib::InterestRate") align 8 %ref.tmp, double noundef %add, ptr noundef nonnull align 8 dereferenceable(16) %dayCounter, i32 noundef 1, i32 noundef 1, ptr noundef nonnull align 8 dereferenceable(8) %startDate_, ptr noundef nonnull align 8 dereferenceable(8) %maturityDate_, ptr noundef nonnull align 8 dereferenceable(8) %ref.tmp2, ptr noundef nonnull align 8 dereferenceable(8) %ref.tmp3)
  %2 = load double, ptr %ref.tmp, align 8, !tbaa !118
  %pn.i.i.i = getelementptr inbounds nuw i8, ptr %ref.tmp, i64 16
  %3 = load ptr, ptr %pn.i.i.i, align 8, !tbaa !42
  %cmp.not.i.i.i.i = icmp eq ptr %3, null
  br i1 %cmp.not.i.i.i.i, label %_ZN8QuantLib12InterestRateD2Ev.exit, label %if.then.i.i.i.i

if.then.i.i.i.i:                                  ; preds = %entry
  %use_count_.i.i.i.i.i = getelementptr inbounds nuw i8, ptr %3, i64 8
  %4 = atomicrmw sub ptr %use_count_.i.i.i.i.i, i32 1 acq_rel, align 4
  %cmp.i.i.i.i.i = icmp eq i32 %4, 1
  br i1 %cmp.i.i.i.i.i, label %if.then.i.i.i.i.i, label %_ZN8QuantLib12InterestRateD2Ev.exit

if.then.i.i.i.i.i:                                ; preds = %if.then.i.i.i.i
  %vtable.i.i.i.i.i = load ptr, ptr %3, align 8, !tbaa !33
  %vfn.i.i.i.i.i = getelementptr inbounds i8, ptr %vtable.i.i.i.i.i, i64 16
  %5 = load ptr, ptr %vfn.i.i.i.i.i, align 8
  invoke void %5(ptr noundef nonnull align 8 dereferenceable(16) %3)
          to label %.noexc.i.i.i.i unwind label %terminate.lpad.i.i.i.i

.noexc.i.i.i.i:                                   ; preds = %if.then.i.i.i.i.i
  %weak_count_.i.i.i.i.i.i = getelementptr inbounds nuw i8, ptr %3, i64 12
  %6 = atomicrmw sub ptr %weak_count_.i.i.i.i.i.i, i32 1 acq_rel, align 4
  %cmp.i.i.i.i.i.i = icmp eq i32 %6, 1
  br i1 %cmp.i.i.i.i.i.i, label %if.then.i.i.i.i.i.i, label %_ZN8QuantLib12InterestRateD2Ev.exit

if.then.i.i.i.i.i.i:                              ; preds = %.noexc.i.i.i.i
  %vtable.i.i.i.i.i.i = load ptr, ptr %3, align 8, !tbaa !33
  %vfn.i.i.i.i.i.i = getelementptr inbounds i8, ptr %vtable.i.i.i.i.i.i, i64 24
  %7 = load ptr, ptr %vfn.i.i.i.i.i.i, align 8
  invoke void %7(ptr noundef nonnull align 8 dereferenceable(16) %3)
          to label %_ZN8QuantLib12InterestRateD2Ev.exit unwind label %terminate.lpad.i.i.i.i

terminate.lpad.i.i.i.i:                           ; preds = %if.then.i.i.i.i.i.i, %if.then.i.i.i.i.i
  %8 = landingpad { ptr, i32 }
          catch ptr null
  %9 = extractvalue { ptr, i32 } %8, 0
  call void @__clang_call_terminate(ptr %9) #28
  unreachable

_ZN8QuantLib12InterestRateD2Ev.exit:              ; preds = %entry, %if.then.i.i.i.i, %.noexc.i.i.i.i, %if.then.i.i.i.i.i.i
  call void @llvm.lifetime.end.p0(i64 8, ptr nonnull %ref.tmp3) #27
  call void @llvm.lifetime.end.p0(i64 8, ptr nonnull %ref.tmp2) #27
  call void @llvm.lifetime.end.p0(i64 40, ptr nonnull %ref.tmp) #27
  ret double %2
}